L251 LINKER/LOCATER V4.66.93.0                                                          04/03/2024  18:20:45  PAGE 1


L251 LINKER/LOCATER V4.66.93.0, INVOKED BY:
C:\KEIL_V5\C251\BIN\L251.EXE .\Objects\main.obj, .\Objects\oled.obj, .\Objects\spi.obj TO .\Objects\STC32G_Test_06_SPI通
>> 信OLED屏 PRINT (.\Listings\STC32G_Test_06_SPI通信OLED屏.map) CASE CLASSES (EDATA (0X0-0XFFF), HDATA (0X0-0XFFF))


CPU MODE:     251 SOURCE MODE
MEMORY MODEL: XSMALL WITH FLOATING POINT ARITHMETIC


INPUT MODULES INCLUDED:
  .\Objects\main.obj (main)
         COMMENT TYPE 0: C251 V5.60.0
  .\Objects\oled.obj (oled)
         COMMENT TYPE 0: C251 V5.60.0
  .\Objects\spi.obj (spi)
         COMMENT TYPE 0: C251 V5.60.0
  C:\KEIL_V5\C251\LIB\C2SFPXS.LIB (SPRINTF)
         COMMENT TYPE 0: A251 V4.69.6.0
  C:\KEIL_V5\C251\LIB\C2SFPXS.LIB (?C?PRNFMT)
         COMMENT TYPE 0: A251 V4.69.6.0
  C:\KEIL_V5\C251\LIB\C2SFPXS.LIB (?C?FPCONVERT)
         COMMENT TYPE 0: A251 V4.69.6.0
  C:\KEIL_V5\C251\LIB\C2SFPXS.LIB (?C?FPMUL)
         COMMENT TYPE 0: A251 V4.69.6.0
  C:\KEIL_V5\C251\LIB\C2SFPXS.LIB (?C?FPDIV)
         COMMENT TYPE 0: A251 V4.69.6.0
  C:\KEIL_V5\C251\LIB\C2SFPXS.LIB (?C?FTNPWR)
         COMMENT TYPE 0: A251 V4.69.6.0
  C:\KEIL_V5\C251\LIB\C2SFPXS.LIB (?C?FPGETOPN)
         COMMENT TYPE 0: A251 V4.69.6.0
  C:\KEIL_V5\C251\LIB\C2SXS.LIB (?C_START)
         COMMENT TYPE 0: A251 V4.69.6.0
  C:\KEIL_V5\C251\LIB\C2SXS.LIB (?C?INITEDATA)
         COMMENT TYPE 0: A251 V4.69.6.0
  C:\KEIL_V5\C251\LIB\C2SXS.LIB (?C?SIDIV)
         COMMENT TYPE 0: A251 V4.69.6.0
  C:\KEIL_V5\C251\LIB\C2SXS.LIB (memset)
         COMMENT TYPE 0: C251 V5.58.7
  C:\KEIL_V5\C251\LIB\C2SXS.LIB (?C?INITEDATA_END)
         COMMENT TYPE 0: A251 V4.69.6.0


ACTIVE MEMORY CLASSES OF MODULE:  .\Objects\STC32G_Test_06_SPI通信OLED屏 (main)

BASE        START       END         USED      MEMORY CLASS
==========================================================
000000H     000000H     000FFFH     00014FH   EDATA
000000H     000000H     000FFFH               HDATA
000000H     FF0000H     FFFFFFH     0000B2H   HCONST
FF0000H     FF0000H     FFFFFFH     002AD1H   CODE
010000H     010000H     01FFFFH     000417H   XDATA
FF0000H     FF0000H     FFFFFFH     000004H   CONST
000000H     000000H     00007FH     000008H   DATA


MEMORY MAP OF MODULE:  .\Objects\STC32G_Test_06_SPI通信OLED屏 (main)


START     STOP      LENGTH    ALIGN  RELOC    MEMORY CLASS   SEGMENT NAME
=========================================================================
000000H   000007H   000008H   ---    AT..     DATA           "REG BANK 0"
000008H   00002FH   000028H   BYTE   UNIT     EDATA          ?ED?SPRINTF
000030H   00003BH   00000CH   BYTE   UNIT     EDATA          ?ED?OLED_BUFFSHOWCIRCLE?OLED
00003CH   000042H   000007H   BYTE   UNIT     EDATA          ?ED?MAIN
000043H   000047H   000005H   BYTE   UNIT     EDATA          ?ED?OLED_DRAWBMP?OLED
000048H   00004CH   000005H   BYTE   UNIT     EDATA          _EDATA_GROUP_
L251 LINKER/LOCATER V4.66.93.0                                                        04/03/2024  18:20:45  PAGE 2


00004DH   000050H   000004H   BYTE   UNIT     EDATA          ?ED?OLED_BUFFSHOWNUM?OLED
000051H   000054H   000004H   BYTE   UNIT     EDATA          ?ED?OLED_BUFFSHOWNUM02F?OLED
000055H   000056H   000002H   BYTE   UNIT     EDATA          ?ED?OLED_BUFFSHOWLINE?OLED
000057H   000156H   000100H   BYTE   UNIT     EDATA          ?STACK
000157H   00FFFFH   00FEA9H   ---    ---      **GAP**
010000H   0103FFH   000400H   BYTE   INSEG    XDATA          ?XD?OLED
010400H   010409H   00000AH   BYTE   UNIT     XDATA          ?XD?OLED_BUFFSHOWNUM?OLED
01040AH   010413H   00000AH   BYTE   UNIT     XDATA          ?XD?OLED_BUFFSHOWNUM02F?OLED
010414H   010416H   000003H   BYTE   UNIT     XDATA          ?XD?OLED_DRAWBMP?OLED
010417H   FEFFFFH   FDFBE9H   ---    ---      **GAP**
FF0000H   FF0002H   000003H   ---    OFFS..   CODE           ?CO?start251?4
FF0003H   FF0CAAH   000CA8H   BYTE   UNIT     CODE           ?CO?OLED
FF0CABH   FF18AAH   000C00H   BYTE   UNIT     CODE           ?CO?MAIN
FF18ABH   FF201AH   000770H   BYTE   UNIT     CODE           ?C?LIB_CODE
FF201BH   FF211DH   000103H   BYTE   INSEG    CODE           ?PR?OLED_BUFFSHOWCIRCLE?OLED
FF211EH   FF21FFH   0000E2H   BYTE   INSEG    CODE           ?PR?OLED_INIT?OLED
FF2200H   FF22C2H   0000C3H   BYTE   INSEG    CODE           ?PR?OLED_BUFFSHOWLINE?OLED
FF22C3H   FF2380H   0000BEH   BYTE   INSEG    CODE           ?PR?OLED_BUFFSHOWGBK?OLED
FF2381H   FF240BH   00008BH   BYTE   INSEG    CODE           ?PR?OLED_BUFFSHOWCHAR?OLED
FF240CH   FF2493H   000088H   BYTE   INSEG    CODE           ?PR?OLED_BUFFSHOWSTRING?OLED
FF2494H   FF2517H   000084H   BYTE   INSEG    CODE           ?PR?OLED_DRAWBMP?OLED
FF2518H   FF2598H   000081H   BYTE   INSEG    CODE           ?PR?OLED_BUFFSHOWCHAR32?OLED
FF2599H   FF2614H   00007CH   BYTE   INSEG    CODE           ?PR?KEY3_SHORT_PRESS?MAIN
FF2615H   FF266BH   000057H   BYTE   INSEG    CODE           ?PR?OLED_BUFFSHOWBMP?OLED
FF266CH   FF26BAH   00004FH   BYTE   INSEG    CODE           ?PR?OLED_BUFFSHOWNUM02F?OLED
FF26BBH   FF2709H   00004FH   BYTE   INSEG    CODE           ?PR?OLED_BUFFSHOW?OLED
FF270AH   FF2758H   00004FH   BYTE   INSEG    CODE           ?PR?OLED_BUFFSHOWNUM?OLED
FF2759H   FF27A1H   000049H   BYTE   INSEG    CODE           ?PR?OLED_BUFFSHOWPOINT?OLED
FF27A2H   FF27E1H   000040H   BYTE   INSEG    CODE           ?PR?MAIN?MAIN
FF27E2H   FF27F4H   000013H   BYTE   UNIT     CODE           ?C_C51STARTUP
FF27F5H   FF281DH   000029H   BYTE   UNIT     CODE           ?C_C51STARTUP?2
FF281EH   FF2820H   000003H   BYTE   UNIT     CODE           ?C_C51STARTUP?3
FF2821H   FF285AH   00003AH   BYTE   INSEG    CODE           ?PR?SYS_INIT?MAIN
FF285BH   FF288DH   000033H   BYTE   INSEG    CODE           ?PR?OLED_BUFFSHOWRECTANGLE?OLED
FF288EH   FF28BEH   000031H   BYTE   INSEG    CODE           ?PR?KEY2_SHORT_PRESS?MAIN
FF28BFH   FF28EEH   000030H   BYTE   INSEG    CODE           ?PR?KEY1_SHORT_PRESS?MAIN
FF28EFH   FF291BH   00002DH   BYTE   INSEG    CODE           ?PR?SPI_INIT?SPI
FF291CH   FF2944H   000029H   BYTE   INSEG    CODE           ?PR?KEY1_CHECK?MAIN
FF2945H   FF296DH   000029H   BYTE   INSEG    CODE           ?PR?KEY2_CHECK?MAIN
FF296EH   FF2996H   000029H   BYTE   INSEG    CODE           ?PR?KEY3_CHECK?MAIN
FF2997H   FF29BFH   000029H   BYTE   INSEG    CODE           ?PR?KEY4_CHECK?MAIN
FF29C0H   FF29E8H   000029H   BYTE   INSEG    CODE           ?PR?OLED_SET_POS?OLED
FF29E9H   FF2A0BH   000023H   BYTE   INSEG    CODE           ?PR?OLED_LIGHTSET?OLED
FF2A0CH   FF2A2AH   00001FH   BYTE   INSEG    CODE           ?PR?OLED_WR_BYTE?OLED
FF2A2BH   FF2A44H   00001AH   BYTE   INSEG    CODE           ?PR?MEMSET?_?MEMSET
FF2A45H   FF2A5CH   000018H   BYTE   INSEG    CODE           ?PR?OLED_LOADING?MAIN
FF2A5DH   FF2A73H   000017H   BYTE   INSEG    CODE           ?PR?DELAY_MS?OLED
FF2A74H   FF2A88H   000015H   BYTE   INSEG    CODE           ?PR?OLED_DISPLAYON?OLED
FF2A89H   FF2A9DH   000015H   BYTE   INSEG    CODE           ?PR?OLED_DISPLAYOFF?OLED
FF2A9EH   FF2AAEH   000011H   BYTE   INSEG    CODE           ?PR?SPI_WRITEBYTE?SPI
FF2AAFH   FF2ABEH   000010H   BYTE   INSEG    CODE           ?PR?OLED_BUFFCLEAR?OLED
FF2ABFH   FF2AC9H   00000BH   BYTE   INSEG    CODE           ?PR?DELAY?OLED
FF2ACAH   FF2AD0H   000007H   BYTE   INSEG    CODE           ?PR?KEY4_SHORT_PRESS?MAIN
FF2AD1H   FF2AD4H   000004H   BYTE   UNIT     CONST          ?CO?PRINTF
FF2AD5H   FF2B5CH   000088H   BYTE   UNIT     HCONST         ?HC?MAIN
FF2B5DH   FF2B7DH   000021H   BYTE   UNIT     HCONST         ?C_INITEDATA
FF2B7EH   FF2B86H   000009H   BYTE   UNIT     HCONST         ?HC?OLED



OVERLAY MAP OF MODULE:   .\Objects\STC32G_Test_06_SPI通信OLED屏 (main)


FUNCTION/MODULE                  EDATA_GROUP
--> CALLED FUNCTION/MODULE       START  STOP
L251 LINKER/LOCATER V4.66.93.0                                                        04/03/2024  18:20:45  PAGE 3


============================================
?C_C51STARTUP                    ----- -----

*** NEW ROOT *******************

?C_C51STARTUP?3                  ----- -----
  +--> main/main

main/main                        ----- -----
  +--> Sys_Init/main
  +--> SPI_Init/spi
  +--> OLED_Init/oled
  +--> OLED_BuffClear/oled
  +--> OLED_BuffShowString/oled
  +--> OLED_BuffShow/oled
  +--> key1_check/main
  +--> key2_check/main
  +--> key3_check/main
  +--> key4_check/main

Sys_Init/main                    ----- -----

SPI_Init/spi                     ----- -----

OLED_Init/oled                   ----- -----
  +--> SPI_Init/spi
  +--> delay_ms/oled
  +--> OLED_WR_Byte/oled
  +--> OLED_DisplayOn/oled

delay_ms/oled                    ----- -----

OLED_WR_Byte/oled                0048H 0048H
  +--> SPI_WriteByte/spi
  +--> delay/oled

SPI_WriteByte/spi                ----- -----

delay/oled                       ----- -----

OLED_DisplayOn/oled              ----- -----
  +--> OLED_WR_Byte/oled

OLED_BuffClear/oled              ----- -----
  +--> memset?_/memset

memset?_/memset                  ----- -----

OLED_BuffShowString/oled         0048H 004CH
  +--> OLED_BuffShowChar/oled
  +--> OLED_BuffShowGBK/oled

OLED_BuffShowChar/oled           ----- -----

OLED_BuffShowGBK/oled            ----- -----

OLED_BuffShow/oled               ----- -----
  +--> OLED_WR_Byte/oled

key1_check/main                  ----- -----
  +--> key1_short_press/main

key1_short_press/main            ----- -----
  +--> OLED_Loading/main
  +--> OLED_BuffClear/oled
L251 LINKER/LOCATER V4.66.93.0                                                        04/03/2024  18:20:45  PAGE 4


  +--> OLED_BuffShowString/oled
  +--> OLED_BuffShow/oled

OLED_Loading/main                ----- -----
  +--> OLED_BuffClear/oled
  +--> OLED_BuffShowString/oled
  +--> OLED_BuffShow/oled

key2_check/main                  ----- -----
  +--> key2_short_press/main

key2_short_press/main            ----- -----
  +--> OLED_Loading/main
  +--> delay_ms/oled
  +--> OLED_BuffClear/oled
  +--> OLED_BuffShowBMP/oled
  +--> OLED_BuffShow/oled

OLED_BuffShowBMP/oled            ----- -----

key3_check/main                  ----- -----
  +--> key3_short_press/main

key3_short_press/main            ----- -----
  +--> OLED_Loading/main
  +--> OLED_BuffClear/oled
  +--> OLED_BuffShowString/oled
  +--> OLED_BuffShow/oled
  +--> OLED_BuffShowChar32/oled

OLED_BuffShowChar32/oled         ----- -----

key4_check/main                  ----- -----
  +--> key4_short_press/main

key4_short_press/main            ----- -----

*** NEW ROOT *******************

?C_C51STARTUP?2                  ----- -----



PUBLIC SYMBOLS OF MODULE:  .\Objects\STC32G_Test_06_SPI通信OLED屏 (main)


      VALUE       CLASS    TYPE      PUBLIC SYMBOL NAME
      =================================================
      000000FFH   NUMBER   ---       ?C?CODESEG
      00FF1D15H   CODE     ---       ?C?FPCONVERT
      00FF1EB0H   CODE     ---       ?C?FPDIV
      00FF1F98H   CODE     ---       ?C?FPGETOPN2
      00FF1E10H   CODE     ---       ?C?FPMUL
      00FF1FD5H   CODE     ---       ?C?FPNANRESULT
      00FF1FDDH   CODE     ---       ?C?FPOVERFLOW
      00FF1FB1H   CODE     ---       ?C?FPRESULT
      00FF1FC7H   CODE     ---       ?C?FPRESULT2
      00FF1DCDH   CODE     ---       ?C?FPROUND
      00FF1FDAH   CODE     ---       ?C?FPUNDERFLOW
      00FF1F61H   CODE     ---       ?C?FTNPWR
      00FF27F5H   CODE     ---       ?C?INITEDATA
      00FF2B7CH   HCONST   WORD      ?C?INITEDATA_END
      00FF18F8H   CODE     ---       ?C?PRNFMT
      00FF1FE9H   CODE     ---       ?C?SIDIV
      00FF0000H   CODE     ---       ?C?STARTUP
L251 LINKER/LOCATER V4.66.93.0                                                        04/03/2024  18:20:45  PAGE 5


      00000001H   NUMBER   ---       ?C?XDATASEG
      00FF0000H   CODE     ---       ?C_STARTUP
      00000030H   EDATA    ---       ?sprintf?BYTE
*SFR* 000000BCH   DATA     BYTE      ADC_CONTR
*SFR* 000000DEH   DATA     BYTE      ADCCFG
      00FF0303H   CODE     ---       Ascll_16
*SFR* 000000EFH   DATA     BYTE      AUXINTIF
*SFR* 0000008EH   DATA     BYTE      AUXR
*SFR* 00000097H   DATA     BYTE      AUXR2
*SFR* 000000F1H   DATA     BYTE      CANICR
*SFR* 000000EAH   DATA     BYTE      CKCON
*SFR* 000000E6H   DATA     BYTE      CMPCR1
*SFR* 000000E7H   DATA     BYTE      CMPCR2
      0000003CH   EDATA    WORD      counter
*SFR* 000000CEH.2 DATA     BIT       CPHA
*SFR* 000000CEH.3 DATA     BIT       CPOL
      0000003EH   EDATA    BYTE      current_mode
      00FF2ABFH   CODE     ---       delay
      00FF2A5DH   CODE     ---       delay_ms
*SFR* 000000CEH.5 DATA     BIT       DORD
*SFR* 000000A8H.7 DATA     BIT       EA
*SFR* 000000BAH.7 DATA     BIT       EAXFR
      00FF08F3H   CODE     ---       GBK16
*SFR* 000000C7H   DATA     BYTE      IAP_CONTR
*SFR* 000000A8H   DATA     BYTE      IE
*SFR* 000000AFH   DATA     BYTE      IE2
*SFR* 0000008FH   DATA     BYTE      INTCLKO
*SFR* 000000B8H   DATA     BYTE      IP
*SFR* 000000B5H   DATA     BYTE      IP2
*SFR* 000000B6H   DATA     BYTE      IP2H
*SFR* 000000DFH   DATA     BYTE      IP3
*SFR* 000000EEH   DATA     BYTE      IP3H
*SFR* 000000B7H   DATA     BYTE      IPH
*SFR* 0000009DH   DATA     BYTE      IRCBAND
*SFR* 00000090H.0 DATA     BIT       key1
      00FF291CH   CODE     ---       key1_check
      00FF28BFH   CODE     ---       key1_short_press
      0000003FH   EDATA    BYTE      key1_up_store
*SFR* 00000090H.1 DATA     BIT       key2
      00FF2945H   CODE     ---       key2_check
      00FF288EH   CODE     ---       key2_short_press
      00000040H   EDATA    BYTE      key2_up_store
*SFR* 00000090H.3 DATA     BIT       key3
      00FF296EH   CODE     ---       key3_check
      00FF2599H   CODE     ---       key3_short_press
      00000041H   EDATA    BYTE      key3_up_store
*SFR* 00000090H.4 DATA     BIT       key4
      00FF2997H   CODE     ---       key4_check
      00FF2ACAH   CODE     ---       key4_short_press
      00000042H   EDATA    BYTE      key4_up_store
      00FF0CABH   CODE     ---       LCD12864_IMG
      00FF0003H   CODE     ---       lib_num1632
*SFR* 000000F9H   DATA     BYTE      LINICR
      00FF27A2H   CODE     ---       main
      00FF2A2BH   CODE     ---       memset?_
*SFR* 000000CEH.4 DATA     BIT       MSTR
      00FF14ABH   CODE     ---       OLED12864_IMG
      00FF10ABH   CODE     ---       OLED12864_ZWU_LOGO
      00FF2AAFH   CODE     ---       OLED_BuffClear
      00FF26BBH   CODE     ---       OLED_BuffShow
      00FF2615H   CODE     ---       OLED_BuffShowBMP
      00FF2381H   CODE     ---       OLED_BuffShowChar
      00FF2518H   CODE     ---       OLED_BuffShowChar32
      00FF201BH   CODE     ---       OLED_BuffShowCircle
      00FF22C3H   CODE     ---       OLED_BuffShowGBK
L251 LINKER/LOCATER V4.66.93.0                                                        04/03/2024  18:20:45  PAGE 6


      00FF2200H   CODE     ---       OLED_BuffShowLine
      00FF270AH   CODE     ---       OLED_BuffShowNum
      00FF266CH   CODE     ---       OLED_BuffShowNum02F
      00FF2759H   CODE     ---       OLED_BuffShowPoint
      00FF285BH   CODE     ---       OLED_BuffShowRectangle
      00FF240CH   CODE     ---       OLED_BuffShowString
*SFR* 000000A0H.2 DATA     BIT       OLED_CS
*SFR* 000000A0H.1 DATA     BIT       OLED_DC
      00FF2A89H   CODE     ---       OLED_DisplayOff
      00FF2A74H   CODE     ---       OLED_DisplayOn
      00FF2494H   CODE     ---       OLED_DrawBMP
      00FF211EH   CODE     ---       OLED_Init
      00FF29E9H   CODE     ---       OLED_LightSet
      00FF2A45H   CODE     ---       OLED_Loading
*SFR* 000000A0H.0 DATA     BIT       OLED_REST
      00FF29C0H   CODE     ---       OLED_Set_Pos
      00FF2A0CH   CODE     ---       OLED_WR_Byte
*SFR* 00000080H   DATA     BYTE      P0
*SFR* 00000094H   DATA     BYTE      P0M0
*SFR* 00000093H   DATA     BYTE      P0M1
*SFR* 00000090H   DATA     BYTE      P1
*SFR* 00000092H   DATA     BYTE      P1M0
*SFR* 00000091H   DATA     BYTE      P1M1
*SFR* 000000A0H   DATA     BYTE      P2
*SFR* 00000096H   DATA     BYTE      P2M0
*SFR* 00000095H   DATA     BYTE      P2M1
*SFR* 000000B0H   DATA     BYTE      P3
*SFR* 000000B2H   DATA     BYTE      P3M0
*SFR* 000000B1H   DATA     BYTE      P3M1
*SFR* 000000C0H   DATA     BYTE      P4
*SFR* 000000B4H   DATA     BYTE      P4M0
*SFR* 000000B3H   DATA     BYTE      P4M1
*SFR* 000000C8H   DATA     BYTE      P5
*SFR* 000000CAH   DATA     BYTE      P5M0
*SFR* 000000C9H   DATA     BYTE      P5M1
*SFR* 000000E8H   DATA     BYTE      P6
*SFR* 000000CCH   DATA     BYTE      P6M0
*SFR* 000000CBH   DATA     BYTE      P6M1
*SFR* 000000F8H   DATA     BYTE      P7
*SFR* 000000E2H   DATA     BYTE      P7M0
*SFR* 000000E1H   DATA     BYTE      P7M1
*SFR* 000000A2H   DATA     BYTE      P_SW1
*SFR* 000000BAH   DATA     BYTE      P_SW2
*SFR* 000000BBH   DATA     BYTE      P_SW3
*SFR* 00000087H   DATA     BYTE      PCON
*SFR* 000000D0H   DATA     BYTE      PSW
*SFR* 000000FFH   DATA     BYTE      RSTCFG
*SFR* 0000009AH   DATA     BYTE      S2CON
*SFR* 000000ACH   DATA     BYTE      S3CON
*SFR* 000000FDH   DATA     BYTE      S4CON
*SFR* 00000098H   DATA     BYTE      SCON
      00010000H   XDATA    ---       ShowBUFF
*SFR* 000000CEH   DATA     BYTE      SPCTL
*SFR* 000000CFH   DATA     BYTE      SPDAT
*SFR* 000000CEH.6 DATA     BIT       SPEN
      00FF28EFH   CODE     ---       SPI_Init
*SFR* 000000A0H.3 DATA     BIT       SPI_MOSI
*SFR* 000000A0H.5 DATA     BIT       SPI_SCK
      00FF2A9EH   CODE     ---       SPI_WriteByte
*SFR* 000000CDH.7 DATA     BIT       SPIF
      00FF18ABH   CODE     NEAR LAB  sprintf
*SFR* 000000CDH   DATA     BYTE      SPSTAT
*SFR* 000000CEH.7 DATA     BIT       SSIG
      00FF2821H   CODE     ---       Sys_Init
*SFR* 000000DDH   DATA     BYTE      T4T3M
L251 LINKER/LOCATER V4.66.93.0                                                        04/03/2024  18:20:45  PAGE 7


*SFR* 00000088H   DATA     BYTE      TCON
*SFR* 00000089H   DATA     BYTE      TMOD
*SFR* 000000F4H   DATA     BYTE      USBCON
*SFR* 000000CDH.6 DATA     BIT       WCOL
*SFR* 000000C1H   DATA     BYTE      WDT_CONTR
*SFR* 000000E9H   DATA     BYTE      WTST



SYMBOL TABLE OF MODULE:  .\Objects\STC32G_Test_06_SPI通信OLED屏 (main)

      VALUE       REP       CLASS    TYPE      SYMBOL NAME
      ====================================================
      ---         MODULE    ---      ---       main
      00FF28BFH   PUBLIC    CODE     ---       key1_short_press
      00FF288EH   PUBLIC    CODE     ---       key2_short_press
      00FF2599H   PUBLIC    CODE     ---       key3_short_press
      00FF2ACAH   PUBLIC    CODE     ---       key4_short_press
      00FF27A2H   PUBLIC    CODE     ---       main
      00FF2821H   PUBLIC    CODE     ---       Sys_Init
      00FF2A45H   PUBLIC    CODE     ---       OLED_Loading
      00FF291CH   PUBLIC    CODE     ---       key1_check
      00FF2945H   PUBLIC    CODE     ---       key2_check
      00FF296EH   PUBLIC    CODE     ---       key3_check
      00FF2997H   PUBLIC    CODE     ---       key4_check
      0000003CH   PUBLIC    EDATA    WORD      counter
      0000003EH   PUBLIC    EDATA    BYTE      current_mode
      0000003FH   PUBLIC    EDATA    BYTE      key1_up_store
      00000040H   PUBLIC    EDATA    BYTE      key2_up_store
      00000041H   PUBLIC    EDATA    BYTE      key3_up_store
      00000042H   PUBLIC    EDATA    BYTE      key4_up_store
      00FF0CABH   PUBLIC    CODE     ---       LCD12864_IMG
      00FF10ABH   PUBLIC    CODE     ---       OLED12864_ZWU_LOGO
      00FF14ABH   PUBLIC    CODE     ---       OLED12864_IMG
      00000094H   SFRSYM    DATA     BYTE      P0M0
      00000090H.3 SFRSYM    DATA     BIT       key3
      00000090H.1 SFRSYM    DATA     BIT       key2
      00000090H.0 SFRSYM    DATA     BIT       key1
      000000D0H   SFRSYM    DATA     BYTE      PSW
      000000BAH.7 SFRSYM    DATA     BIT       EAXFR
      0000009DH   SFRSYM    DATA     BYTE      IRCBAND
      00000097H   SFRSYM    DATA     BYTE      AUXR2
      000000EAH   SFRSYM    DATA     BYTE      CKCON
      000000EFH   SFRSYM    DATA     BYTE      AUXINTIF
      000000FDH   SFRSYM    DATA     BYTE      S4CON
      000000ACH   SFRSYM    DATA     BYTE      S3CON
      0000009AH   SFRSYM    DATA     BYTE      S2CON
      000000B7H   SFRSYM    DATA     BYTE      IPH
      000000CDH   SFRSYM    DATA     BYTE      SPSTAT
      000000DDH   SFRSYM    DATA     BYTE      T4T3M
      000000C1H   SFRSYM    DATA     BYTE      WDT_CONTR
      000000E9H   SFRSYM    DATA     BYTE      WTST
      000000DFH   SFRSYM    DATA     BYTE      IP3
      000000F4H   SFRSYM    DATA     BYTE      USBCON
      000000B5H   SFRSYM    DATA     BYTE      IP2
      000000FFH   SFRSYM    DATA     BYTE      RSTCFG
      000000C7H   SFRSYM    DATA     BYTE      IAP_CONTR
      000000F9H   SFRSYM    DATA     BYTE      LINICR
      0000008EH   SFRSYM    DATA     BYTE      AUXR
      000000AFH   SFRSYM    DATA     BYTE      IE2
      00000088H   SFRSYM    DATA     BYTE      TCON
      00000089H   SFRSYM    DATA     BYTE      TMOD
      00000098H   SFRSYM    DATA     BYTE      SCON
      000000F1H   SFRSYM    DATA     BYTE      CANICR
      00000087H   SFRSYM    DATA     BYTE      PCON
L251 LINKER/LOCATER V4.66.93.0                                                        04/03/2024  18:20:45  PAGE 8


      000000BCH   SFRSYM    DATA     BYTE      ADC_CONTR
      000000E7H   SFRSYM    DATA     BYTE      CMPCR2
      000000E6H   SFRSYM    DATA     BYTE      CMPCR1
      000000DEH   SFRSYM    DATA     BYTE      ADCCFG
      000000B8H   SFRSYM    DATA     BYTE      IP
      0000008FH   SFRSYM    DATA     BYTE      INTCLKO
      000000EEH   SFRSYM    DATA     BYTE      IP3H
      000000B6H   SFRSYM    DATA     BYTE      IP2H
      000000A8H   SFRSYM    DATA     BYTE      IE
      000000BBH   SFRSYM    DATA     BYTE      P_SW3
      000000BAH   SFRSYM    DATA     BYTE      P_SW2
      000000A2H   SFRSYM    DATA     BYTE      P_SW1
      000000CEH   SFRSYM    DATA     BYTE      SPCTL
      000000F8H   SFRSYM    DATA     BYTE      P7
      000000A8H.7 SFRSYM    DATA     BIT       EA
      000000E1H   SFRSYM    DATA     BYTE      P7M1
      000000E8H   SFRSYM    DATA     BYTE      P6
      000000C8H   SFRSYM    DATA     BYTE      P5
      000000CBH   SFRSYM    DATA     BYTE      P6M1
      000000E2H   SFRSYM    DATA     BYTE      P7M0
      000000C0H   SFRSYM    DATA     BYTE      P4
      000000C9H   SFRSYM    DATA     BYTE      P5M1
      000000CCH   SFRSYM    DATA     BYTE      P6M0
      000000B0H   SFRSYM    DATA     BYTE      P3
      000000B3H   SFRSYM    DATA     BYTE      P4M1
      000000CAH   SFRSYM    DATA     BYTE      P5M0
      000000A0H   SFRSYM    DATA     BYTE      P2
      000000B1H   SFRSYM    DATA     BYTE      P3M1
      000000B4H   SFRSYM    DATA     BYTE      P4M0
      00000090H   SFRSYM    DATA     BYTE      P1
      00000095H   SFRSYM    DATA     BYTE      P2M1
      000000B2H   SFRSYM    DATA     BYTE      P3M0
      00000080H   SFRSYM    DATA     BYTE      P0
      00000091H   SFRSYM    DATA     BYTE      P1M1
      00000096H   SFRSYM    DATA     BYTE      P2M0
      00000092H   SFRSYM    DATA     BYTE      P1M0
      00000093H   SFRSYM    DATA     BYTE      P0M1
      00000090H.4 SFRSYM    DATA     BIT       key4

      00FF2A45H   BLOCK     CODE     ---       LVL=0
      00FF2A45H   LINE      CODE     ---       #42
      00FF2A45H   LINE      CODE     ---       #44
      00FF2A48H   LINE      CODE     ---       #45
      00FF2A5AH   LINE      CODE     ---       #46
      ---         BLOCKEND  ---      ---       LVL=0

      00FF28BFH   BLOCK     CODE     ---       LVL=0
      00FF28BFH   LINE      CODE     ---       #49
      00FF28BFH   LINE      CODE     ---       #52
      00FF28C5H   LINE      CODE     ---       #53
      00FF28C8H   LINE      CODE     ---       #54
      00FF28CBH   LINE      CODE     ---       #55
      00FF28DBH   LINE      CODE     ---       #56
      00FF28ECH   LINE      CODE     ---       #57
      ---         BLOCKEND  ---      ---       LVL=0

      00FF288EH   BLOCK     CODE     ---       LVL=0
      00FF288EH   LINE      CODE     ---       #60
      00FF288EH   LINE      CODE     ---       #63
      00FF2894H   LINE      CODE     ---       #64
      00FF2897H   LINE      CODE     ---       #65
      00FF289EH   LINE      CODE     ---       #66
      00FF28A1H   LINE      CODE     ---       #67
      00FF28B5H   LINE      CODE     ---       #68
      00FF28B8H   LINE      CODE     ---       #69
L251 LINKER/LOCATER V4.66.93.0                                                        04/03/2024  18:20:45  PAGE 9


      ---         BLOCKEND  ---      ---       LVL=0

      00FF2599H   BLOCK     CODE     ---       LVL=0
      00FF2599H   LINE      CODE     ---       #72
      00FF2599H   LINE      CODE     ---       #75
      00FF25A2H   LINE      CODE     ---       #78
      00FF25A5H   LINE      CODE     ---       #80
      00FF25A8H   LINE      CODE     ---       #81
      00FF25B8H   LINE      CODE     ---       #82
      00FF25C9H   LINE      CODE     ---       #83
      00FF25CCH   LINE      CODE     ---       #84
      00FF25D2H   LINE      CODE     ---       #85
      00FF25D8H   LINE      CODE     ---       #86
      00FF25D9H   LINE      CODE     ---       #89
      00FF25E3H   LINE      CODE     ---       #90
      00FF25EFH   LINE      CODE     ---       #91
      00FF25F2H   LINE      CODE     ---       #92
      00FF2602H   LINE      CODE     ---       #93
      00FF2612H   LINE      CODE     ---       #94
      00FF2615H   LINE      CODE     ---       #95
      00FF2615H   LINE      CODE     ---       #96
      ---         BLOCKEND  ---      ---       LVL=0

      00FF2ACAH   BLOCK     CODE     ---       LVL=0
      00FF2ACAH   LINE      CODE     ---       #98
      00FF2ACAH   LINE      CODE     ---       #101
      00FF2AD0H   LINE      CODE     ---       #102
      ---         BLOCKEND  ---      ---       LVL=0

      00FF291CH   BLOCK     CODE     ---       LVL=0
      00FF291CH   LINE      CODE     ---       #104
      00FF291CH   LINE      CODE     ---       #106
      00FF2929H   LINE      CODE     ---       #108
      00FF292EH   LINE      CODE     ---       #109
      00FF292EH   LINE      CODE     ---       #110
      00FF293BH   LINE      CODE     ---       #112
      00FF2941H   LINE      CODE     ---       #113
      00FF2944H   LINE      CODE     ---       #114
      ---         BLOCKEND  ---      ---       LVL=0

      00FF2945H   BLOCK     CODE     ---       LVL=0
      00FF2945H   LINE      CODE     ---       #117
      00FF2945H   LINE      CODE     ---       #119
      00FF2952H   LINE      CODE     ---       #121
      00FF2957H   LINE      CODE     ---       #122
      00FF2957H   LINE      CODE     ---       #123
      00FF2964H   LINE      CODE     ---       #125
      00FF296AH   LINE      CODE     ---       #126
      00FF296DH   LINE      CODE     ---       #127
      ---         BLOCKEND  ---      ---       LVL=0

      00FF296EH   BLOCK     CODE     ---       LVL=0
      00FF296EH   LINE      CODE     ---       #130
      00FF296EH   LINE      CODE     ---       #132
      00FF297BH   LINE      CODE     ---       #134
      00FF2980H   LINE      CODE     ---       #135
      00FF2980H   LINE      CODE     ---       #136
      00FF298DH   LINE      CODE     ---       #138
      00FF2993H   LINE      CODE     ---       #139
      00FF2996H   LINE      CODE     ---       #140
      ---         BLOCKEND  ---      ---       LVL=0

      00FF2997H   BLOCK     CODE     ---       LVL=0
      00FF2997H   LINE      CODE     ---       #143
      00FF2997H   LINE      CODE     ---       #145
L251 LINKER/LOCATER V4.66.93.0                                                        04/03/2024  18:20:45  PAGE 10


      00FF29A4H   LINE      CODE     ---       #147
      00FF29A9H   LINE      CODE     ---       #148
      00FF29A9H   LINE      CODE     ---       #149
      00FF29B6H   LINE      CODE     ---       #151
      00FF29BCH   LINE      CODE     ---       #152
      00FF29BFH   LINE      CODE     ---       #153
      ---         BLOCKEND  ---      ---       LVL=0

      00FF2821H   BLOCK     CODE     ---       LVL=0
      00FF2821H   LINE      CODE     ---       #156
      00FF2821H   LINE      CODE     ---       #158
      00FF2824H   LINE      CODE     ---       #159
      00FF2827H   LINE      CODE     ---       #160
      00FF282AH   LINE      CODE     ---       #162
      00FF2830H   LINE      CODE     ---       #163
      00FF2836H   LINE      CODE     ---       #164
      00FF283CH   LINE      CODE     ---       #165
      00FF2842H   LINE      CODE     ---       #166
      00FF2848H   LINE      CODE     ---       #167
      00FF284EH   LINE      CODE     ---       #168
      00FF2854H   LINE      CODE     ---       #169
      00FF285AH   LINE      CODE     ---       #170
      ---         BLOCKEND  ---      ---       LVL=0

      00FF27A2H   BLOCK     CODE     ---       LVL=0
      00FF27A2H   LINE      CODE     ---       #172
      00FF27A2H   LINE      CODE     ---       #173
      00FF27A2H   LINE      CODE     ---       #175
      00FF27A2H   LINE      CODE     ---       #177
      00FF27A5H   LINE      CODE     ---       #178
      00FF27A7H   LINE      CODE     ---       #179
      00FF27AAH   LINE      CODE     ---       #180
      00FF27ADH   LINE      CODE     ---       #181
      00FF27B0H   LINE      CODE     ---       #182
      00FF27C0H   LINE      CODE     ---       #183
      00FF27D1H   LINE      CODE     ---       #184
      00FF27D4H   LINE      CODE     ---       #186
      00FF27D4H   LINE      CODE     ---       #188
      00FF27D7H   LINE      CODE     ---       #189
      00FF27DAH   LINE      CODE     ---       #190
      00FF27DDH   LINE      CODE     ---       #191
      00FF27E0H   LINE      CODE     ---       #279
      ---         BLOCKEND  ---      ---       LVL=0

      ---         MODULE    ---      ---       oled
      00FF22C3H   PUBLIC    CODE     ---       OLED_BuffShowGBK
      00FF201BH   PUBLIC    CODE     ---       OLED_BuffShowCircle
      00FF266CH   PUBLIC    CODE     ---       OLED_BuffShowNum02F
      00FF2615H   PUBLIC    CODE     ---       OLED_BuffShowBMP
      00FF2ABFH   PUBLIC    CODE     ---       delay
      00FF2518H   PUBLIC    CODE     ---       OLED_BuffShowChar32
      00FF211EH   PUBLIC    CODE     ---       OLED_Init
      00FF2A74H   PUBLIC    CODE     ---       OLED_DisplayOn
      00FF2A0CH   PUBLIC    CODE     ---       OLED_WR_Byte
      00FF240CH   PUBLIC    CODE     ---       OLED_BuffShowString
      00FF29E9H   PUBLIC    CODE     ---       OLED_LightSet
      00FF26BBH   PUBLIC    CODE     ---       OLED_BuffShow
      00FF2381H   PUBLIC    CODE     ---       OLED_BuffShowChar
      00FF2200H   PUBLIC    CODE     ---       OLED_BuffShowLine
      00FF2759H   PUBLIC    CODE     ---       OLED_BuffShowPoint
      00FF29C0H   PUBLIC    CODE     ---       OLED_Set_Pos
      00FF285BH   PUBLIC    CODE     ---       OLED_BuffShowRectangle
      00FF2A5DH   PUBLIC    CODE     ---       delay_ms
      00FF270AH   PUBLIC    CODE     ---       OLED_BuffShowNum
      00FF2AAFH   PUBLIC    CODE     ---       OLED_BuffClear
L251 LINKER/LOCATER V4.66.93.0                                                        04/03/2024  18:20:45  PAGE 11


      00FF2494H   PUBLIC    CODE     ---       OLED_DrawBMP
      00FF2A89H   PUBLIC    CODE     ---       OLED_DisplayOff
      00FF0003H   PUBLIC    CODE     ---       lib_num1632
      00FF0303H   PUBLIC    CODE     ---       Ascll_16
      00FF08F3H   PUBLIC    CODE     ---       GBK16
      00010000H   PUBLIC    XDATA    ---       ShowBUFF
      000000D0H   SFRSYM    DATA     BYTE      PSW
      0000009DH   SFRSYM    DATA     BYTE      IRCBAND
      00000097H   SFRSYM    DATA     BYTE      AUXR2
      000000EFH   SFRSYM    DATA     BYTE      AUXINTIF
      000000FDH   SFRSYM    DATA     BYTE      S4CON
      000000ACH   SFRSYM    DATA     BYTE      S3CON
      0000009AH   SFRSYM    DATA     BYTE      S2CON
      000000B7H   SFRSYM    DATA     BYTE      IPH
      000000CDH   SFRSYM    DATA     BYTE      SPSTAT
      000000DDH   SFRSYM    DATA     BYTE      T4T3M
      000000C1H   SFRSYM    DATA     BYTE      WDT_CONTR
      000000DFH   SFRSYM    DATA     BYTE      IP3
      000000F4H   SFRSYM    DATA     BYTE      USBCON
      000000B5H   SFRSYM    DATA     BYTE      IP2
      000000FFH   SFRSYM    DATA     BYTE      RSTCFG
      000000A0H.0 SFRSYM    DATA     BIT       OLED_REST
      000000C7H   SFRSYM    DATA     BYTE      IAP_CONTR
      000000F9H   SFRSYM    DATA     BYTE      LINICR
      0000008EH   SFRSYM    DATA     BYTE      AUXR
      000000AFH   SFRSYM    DATA     BYTE      IE2
      00000088H   SFRSYM    DATA     BYTE      TCON
      00000089H   SFRSYM    DATA     BYTE      TMOD
      00000098H   SFRSYM    DATA     BYTE      SCON
      000000F1H   SFRSYM    DATA     BYTE      CANICR
      00000087H   SFRSYM    DATA     BYTE      PCON
      000000BCH   SFRSYM    DATA     BYTE      ADC_CONTR
      000000E7H   SFRSYM    DATA     BYTE      CMPCR2
      000000E6H   SFRSYM    DATA     BYTE      CMPCR1
      000000A0H.2 SFRSYM    DATA     BIT       OLED_CS
      000000DEH   SFRSYM    DATA     BYTE      ADCCFG
      000000B8H   SFRSYM    DATA     BYTE      IP
      0000008FH   SFRSYM    DATA     BYTE      INTCLKO
      000000EEH   SFRSYM    DATA     BYTE      IP3H
      000000B6H   SFRSYM    DATA     BYTE      IP2H
      000000A8H   SFRSYM    DATA     BYTE      IE
      000000BBH   SFRSYM    DATA     BYTE      P_SW3
      000000BAH   SFRSYM    DATA     BYTE      P_SW2
      000000A0H.1 SFRSYM    DATA     BIT       OLED_DC
      000000A2H   SFRSYM    DATA     BYTE      P_SW1
      000000CEH   SFRSYM    DATA     BYTE      SPCTL
      000000F8H   SFRSYM    DATA     BYTE      P7
      000000E8H   SFRSYM    DATA     BYTE      P6
      000000C8H   SFRSYM    DATA     BYTE      P5
      000000C0H   SFRSYM    DATA     BYTE      P4
      000000B0H   SFRSYM    DATA     BYTE      P3
      000000A0H   SFRSYM    DATA     BYTE      P2
      00000090H   SFRSYM    DATA     BYTE      P1
      00000080H   SFRSYM    DATA     BYTE      P0

      00FF2ABFH   BLOCK     CODE     ---       LVL=0
      WR6         REGSYM    ---      INT       i
      00FF2ABFH   LINE      CODE     ---       #20
      00FF2ABFH   LINE      CODE     ---       #21
      00FF2ABFH   LINE      CODE     ---       #24
      00FF2AC9H   LINE      CODE     ---       #25
      ---         BLOCKEND  ---      ---       LVL=0

      00FF2A5DH   BLOCK     CODE     ---       LVL=0
      WR4         REGSYM    ---      WORD      ms
L251 LINKER/LOCATER V4.66.93.0                                                        04/03/2024  18:20:45  PAGE 12


      00FF2A5FH   BLOCK     CODE     NEAR LAB  LVL=1
      WR6         REGSYM    ---      WORD      i
      ---         BLOCKEND  ---      ---       LVL=1
      00FF2A5DH   LINE      CODE     ---       #37
      00FF2A5FH   LINE      CODE     ---       #38
      00FF2A5FH   LINE      CODE     ---       #40
      00FF2A5FH   LINE      CODE     ---       #41
      00FF2A63H   LINE      CODE     ---       #42
      00FF2A6BH   LINE      CODE     ---       #43
      00FF2A73H   LINE      CODE     ---       #44
      ---         BLOCKEND  ---      ---       LVL=0

      00FF2A0CH   BLOCK     CODE     ---       LVL=0
      R10         REGSYM    ---      BYTE      dat
      R7          REGSYM    ---      BYTE      cmd
      00FF2A0EH   BLOCK     CODE     NEAR LAB  LVL=1
      00000048H   SYMBOL    EDATA    ---       udat
      ---         BLOCKEND  ---      ---       LVL=1
      00FF2A0CH   LINE      CODE     ---       #56
      00FF2A0EH   LINE      CODE     ---       #57
      00FF2A0EH   LINE      CODE     ---       #59
      00FF2A12H   LINE      CODE     ---       #60
      00FF2A16H   LINE      CODE     ---       #62
      00FF2A18H   LINE      CODE     ---       #63
      00FF2A1AH   LINE      CODE     ---       #66
      00FF2A1CH   LINE      CODE     ---       #67
      00FF2A1CH   LINE      CODE     ---       #68
      00FF2A1EH   LINE      CODE     ---       #69
      00FF2A23H   LINE      CODE     ---       #70
      00FF2A26H   LINE      CODE     ---       #71
      00FF2A28H   LINE      CODE     ---       #72
      00FF2A2AH   LINE      CODE     ---       #73
      ---         BLOCKEND  ---      ---       LVL=0

      00FF211EH   BLOCK     CODE     ---       LVL=0
      00FF211EH   LINE      CODE     ---       #85
      00FF211EH   LINE      CODE     ---       #87
      00FF2121H   LINE      CODE     ---       #88
      00FF2128H   LINE      CODE     ---       #89
      00FF212AH   LINE      CODE     ---       #90
      00FF2131H   LINE      CODE     ---       #91
      00FF2133H   LINE      CODE     ---       #92
      00FF213AH   LINE      CODE     ---       #93
      00FF213CH   LINE      CODE     ---       #95
      00FF2143H   LINE      CODE     ---       #96
      00FF2149H   LINE      CODE     ---       #97
      00FF2150H   LINE      CODE     ---       #98
      00FF2157H   LINE      CODE     ---       #99
      00FF215EH   LINE      CODE     ---       #100
      00FF2165H   LINE      CODE     ---       #101
      00FF216CH   LINE      CODE     ---       #102
      00FF2173H   LINE      CODE     ---       #103
      00FF217AH   LINE      CODE     ---       #104
      00FF2181H   LINE      CODE     ---       #105
      00FF2188H   LINE      CODE     ---       #106
      00FF218FH   LINE      CODE     ---       #107
      00FF2195H   LINE      CODE     ---       #108
      00FF219CH   LINE      CODE     ---       #109
      00FF21A3H   LINE      CODE     ---       #110
      00FF21AAH   LINE      CODE     ---       #111
      00FF21B1H   LINE      CODE     ---       #112
      00FF21B8H   LINE      CODE     ---       #113
      00FF21BFH   LINE      CODE     ---       #114
      00FF21C6H   LINE      CODE     ---       #115
      00FF21CDH   LINE      CODE     ---       #116
L251 LINKER/LOCATER V4.66.93.0                                                        04/03/2024  18:20:45  PAGE 13


      00FF21D4H   LINE      CODE     ---       #117
      00FF21DAH   LINE      CODE     ---       #118
      00FF21E1H   LINE      CODE     ---       #119
      00FF21E8H   LINE      CODE     ---       #120
      00FF21EFH   LINE      CODE     ---       #121
      00FF21F6H   LINE      CODE     ---       #122
      00FF21FDH   LINE      CODE     ---       #124
      ---         BLOCKEND  ---      ---       LVL=0

      00FF29C0H   BLOCK     CODE     ---       LVL=0
      R15         REGSYM    ---      BYTE      x
      R10         REGSYM    ---      BYTE      y
      00FF29C0H   LINE      CODE     ---       #138
      00FF29C4H   LINE      CODE     ---       #140
      00FF29CDH   LINE      CODE     ---       #141
      00FF29DBH   LINE      CODE     ---       #142
      00FF29E6H   LINE      CODE     ---       #143
      ---         BLOCKEND  ---      ---       LVL=0

      00FF2494H   BLOCK     CODE     ---       LVL=0
      00000043H   SYMBOL    EDATA    BYTE      x0
      00000044H   SYMBOL    EDATA    BYTE      y0
      00000045H   SYMBOL    EDATA    BYTE      x1
      00000046H   SYMBOL    EDATA    BYTE      y1
      REG=3       REGSYM    ---      ---       BMP
      00FF24A8H   BLOCK     CODE     NEAR LAB  LVL=1
      00010414H   SYMBOL    XDATA    WORD      j
      00010416H   SYMBOL    XDATA    BYTE      x
      00000047H   SYMBOL    EDATA    BYTE      y
      ---         BLOCKEND  ---      ---       LVL=1
      00FF2494H   LINE      CODE     ---       #156
      00FF24A8H   LINE      CODE     ---       #157
      00FF24A8H   LINE      CODE     ---       #158
      00FF24B0H   LINE      CODE     ---       #161
      00FF24BAH   LINE      CODE     ---       #163
      00FF24C5H   LINE      CODE     ---       #164
      00FF24CCH   LINE      CODE     ---       #166
      00FF24E6H   LINE      CODE     ---       #167
      00FF24F6H   LINE      CODE     ---       #168
      00FF2515H   LINE      CODE     ---       #169
      ---         BLOCKEND  ---      ---       LVL=0

      00FF2A74H   BLOCK     CODE     ---       LVL=0
      00FF2A74H   LINE      CODE     ---       #181
      00FF2A74H   LINE      CODE     ---       #183
      00FF2A7BH   LINE      CODE     ---       #184
      00FF2A82H   LINE      CODE     ---       #185
      ---         BLOCKEND  ---      ---       LVL=0

      00FF2A89H   BLOCK     CODE     ---       LVL=0
      00FF2A89H   LINE      CODE     ---       #198
      00FF2A89H   LINE      CODE     ---       #200
      00FF2A90H   LINE      CODE     ---       #201
      00FF2A97H   LINE      CODE     ---       #202
      ---         BLOCKEND  ---      ---       LVL=0

      00FF29E9H   BLOCK     CODE     ---       LVL=0
      R15         REGSYM    ---      BYTE      num
      00FF29E9H   LINE      CODE     ---       #215
      00FF29EDH   LINE      CODE     ---       #217
      00FF29F4H   LINE      CODE     ---       #218
      00FF29FBH   LINE      CODE     ---       #219
      00FF2A02H   LINE      CODE     ---       #220
      00FF2A09H   LINE      CODE     ---       #221
      ---         BLOCKEND  ---      ---       LVL=0
L251 LINKER/LOCATER V4.66.93.0                                                        04/03/2024  18:20:45  PAGE 14



      00FF2AAFH   BLOCK     CODE     ---       LVL=0
      00FF2AAFH   LINE      CODE     ---       #234
      00FF2AAFH   LINE      CODE     ---       #236
      ---         BLOCKEND  ---      ---       LVL=0

      00FF26BBH   BLOCK     CODE     ---       LVL=0
      00FF26BFH   BLOCK     CODE     NEAR LAB  LVL=1
      R15         REGSYM    ---      BYTE      i
      R13         REGSYM    ---      BYTE      n
      R7          REGSYM    ---      BYTE      j
      ---         BLOCKEND  ---      ---       LVL=1
      00FF26BBH   LINE      CODE     ---       #249
      00FF26BFH   LINE      CODE     ---       #250
      00FF26BFH   LINE      CODE     ---       #252
      00FF26C1H   LINE      CODE     ---       #254
      00FF26C7H   LINE      CODE     ---       #255
      00FF26CEH   LINE      CODE     ---       #256
      00FF26D4H   LINE      CODE     ---       #257
      00FF26DBH   LINE      CODE     ---       #259
      00FF26DDH   LINE      CODE     ---       #260
      00FF26FEH   LINE      CODE     ---       #261
      00FF2705H   LINE      CODE     ---       #262
      ---         BLOCKEND  ---      ---       LVL=0

      00FF2759H   BLOCK     CODE     ---       LVL=0
      R2          REGSYM    ---      BYTE      x
      R3          REGSYM    ---      BYTE      y
      00FF2759H   LINE      CODE     ---       #274
      00FF275DH   LINE      CODE     ---       #276
      00FF27A1H   LINE      CODE     ---       #277
      ---         BLOCKEND  ---      ---       LVL=0

      00FF2200H   BLOCK     CODE     ---       LVL=0
      R14         REGSYM    ---      BYTE      x1
      R15         REGSYM    ---      BYTE      y1
      R12         REGSYM    ---      BYTE      x2
      R13         REGSYM    ---      BYTE      y2
      00FF220AH   BLOCK     CODE     NEAR LAB  LVL=1
      00000055H   SYMBOL    EDATA    BYTE      x
      00000056H   SYMBOL    EDATA    BYTE      y
      ---         BLOCKEND  ---      ---       LVL=1
      00FF2200H   LINE      CODE     ---       #289
      00FF220AH   LINE      CODE     ---       #290
      00FF220AH   LINE      CODE     ---       #292
      00FF220EH   LINE      CODE     ---       #294
      00FF2218H   LINE      CODE     ---       #295
      00FF2222H   LINE      CODE     ---       #296
      00FF2222H   LINE      CODE     ---       #297
      00FF2226H   LINE      CODE     ---       #299
      00FF222CH   LINE      CODE     ---       #301
      00FF2230H   LINE      CODE     ---       #302
      00FF224EH   LINE      CODE     ---       #304
      00FF226DH   LINE      CODE     ---       #305
      00FF227CH   LINE      CODE     ---       #306
      00FF227EH   LINE      CODE     ---       #309
      00FF2282H   LINE      CODE     ---       #311
      00FF2288H   LINE      CODE     ---       #312
      00FF22A0H   LINE      CODE     ---       #313
      00FF22A2H   LINE      CODE     ---       #316
      00FF22A8H   LINE      CODE     ---       #317
      00FF22C0H   LINE      CODE     ---       #318
      00FF22C0H   LINE      CODE     ---       #319
      00FF22C0H   LINE      CODE     ---       #320
      ---         BLOCKEND  ---      ---       LVL=0
L251 LINKER/LOCATER V4.66.93.0                                                        04/03/2024  18:20:45  PAGE 15



      00FF285BH   BLOCK     CODE     ---       LVL=0
      R12         REGSYM    ---      BYTE      x1
      R13         REGSYM    ---      BYTE      y1
      R14         REGSYM    ---      BYTE      x2
      R15         REGSYM    ---      BYTE      y2
      00FF285BH   LINE      CODE     ---       #332
      00FF2865H   LINE      CODE     ---       #334
      00FF286AH   LINE      CODE     ---       #335
      00FF2875H   LINE      CODE     ---       #336
      00FF2880H   LINE      CODE     ---       #337
      00FF288BH   LINE      CODE     ---       #338
      ---         BLOCKEND  ---      ---       LVL=0

      00FF201BH   BLOCK     CODE     ---       LVL=0
      R14         REGSYM    ---      BYTE      x
      R15         REGSYM    ---      BYTE      y
      R10         REGSYM    ---      BYTE      r
      00FF2023H   BLOCK     CODE     NEAR LAB  LVL=1
      WR12        REGSYM    ---      INT       a
      00000030H   SYMBOL    EDATA    INT       b
      00000032H   SYMBOL    EDATA    INT       di
      00000034H   SYMBOL    EDATA    BYTE      x_add_a
      00000035H   SYMBOL    EDATA    BYTE      x_add_b
      00000036H   SYMBOL    EDATA    BYTE      x_sub_a
      00000037H   SYMBOL    EDATA    BYTE      x_sub_b
      00000038H   SYMBOL    EDATA    BYTE      y_add_a
      00000039H   SYMBOL    EDATA    BYTE      y_add_b
      0000003AH   SYMBOL    EDATA    BYTE      y_sub_a
      0000003BH   SYMBOL    EDATA    BYTE      y_sub_b
      ---         BLOCKEND  ---      ---       LVL=1
      00FF201BH   LINE      CODE     ---       #350
      00FF2023H   LINE      CODE     ---       #351
      00FF2023H   LINE      CODE     ---       #356
      00FF2025H   LINE      CODE     ---       #357
      00FF202BH   LINE      CODE     ---       #358
      00FF2035H   LINE      CODE     ---       #360
      00FF2038H   LINE      CODE     ---       #362
      00FF2042H   LINE      CODE     ---       #363
      00FF204CH   LINE      CODE     ---       #364
      00FF2054H   LINE      CODE     ---       #365
      00FF205CH   LINE      CODE     ---       #366
      00FF2066H   LINE      CODE     ---       #367
      00FF2070H   LINE      CODE     ---       #368
      00FF2078H   LINE      CODE     ---       #369
      00FF2080H   LINE      CODE     ---       #370
      00FF2083H   LINE      CODE     ---       #371
      00FF208EH   LINE      CODE     ---       #372
      00FF2099H   LINE      CODE     ---       #373
      00FF20A4H   LINE      CODE     ---       #374
      00FF20AFH   LINE      CODE     ---       #375
      00FF20BAH   LINE      CODE     ---       #376
      00FF20C5H   LINE      CODE     ---       #377
      00FF20D0H   LINE      CODE     ---       #380
      00FF20D2H   LINE      CODE     ---       #383
      00FF20F0H   LINE      CODE     ---       #386
      00FF2106H   LINE      CODE     ---       #387
      00FF2110H   LINE      CODE     ---       #388
      00FF2110H   LINE      CODE     ---       #389
      00FF211BH   LINE      CODE     ---       #390
      ---         BLOCKEND  ---      ---       LVL=0

      00FF2381H   BLOCK     CODE     ---       LVL=0
      R9          REGSYM    ---      BYTE      x
      R0          REGSYM    ---      BYTE      y
L251 LINKER/LOCATER V4.66.93.0                                                        04/03/2024  18:20:45  PAGE 16


      R1          REGSYM    ---      CHAR      asc
      R8          REGSYM    ---      BYTE      mode
      00FF2389H   BLOCK     CODE     NEAR LAB  LVL=1
      R7          REGSYM    ---      BYTE      j
      R6          REGSYM    ---      BYTE      k
      ---         BLOCKEND  ---      ---       LVL=1
      00FF2381H   LINE      CODE     ---       #402
      00FF2389H   LINE      CODE     ---       #403
      00FF2389H   LINE      CODE     ---       #405
      00FF238BH   LINE      CODE     ---       #407
      00FF238DH   LINE      CODE     ---       #409
      00FF2391H   LINE      CODE     ---       #410
      00FF23B4H   LINE      CODE     ---       #412
      00FF23FEH   LINE      CODE     ---       #413
      00FF2404H   LINE      CODE     ---       #414
      00FF240BH   LINE      CODE     ---       #415
      ---         BLOCKEND  ---      ---       LVL=0

      00FF22C3H   BLOCK     CODE     ---       LVL=0
      R0          REGSYM    ---      BYTE      x
      R1          REGSYM    ---      BYTE      y
      REG=7       REGSYM    ---      ---       gbk
      R9          REGSYM    ---      BYTE      mode
      00FF22CBH   BLOCK     CODE     NEAR LAB  LVL=1
      R8          REGSYM    ---      BYTE      i
      R7          REGSYM    ---      BYTE      j
      R6          REGSYM    ---      BYTE      k
      ---         BLOCKEND  ---      ---       LVL=1
      00FF22C3H   LINE      CODE     ---       #430
      00FF22CBH   LINE      CODE     ---       #431
      00FF22CBH   LINE      CODE     ---       #434
      00FF22CDH   LINE      CODE     ---       #436
      00FF22FEH   LINE      CODE     ---       #440
      00FF2300H   LINE      CODE     ---       #442
      00FF2302H   LINE      CODE     ---       #444
      00FF2306H   LINE      CODE     ---       #445
      00FF2324H   LINE      CODE     ---       #447
      00FF2369H   LINE      CODE     ---       #448
      00FF236FH   LINE      CODE     ---       #449
      00FF2375H   LINE      CODE     ---       #450
      00FF2376H   LINE      CODE     ---       #451
      00FF2380H   LINE      CODE     ---       #453
      ---         BLOCKEND  ---      ---       LVL=0

      00FF240CH   BLOCK     CODE     ---       LVL=0
      00000048H   SYMBOL    EDATA    BYTE      x
      00000049H   SYMBOL    EDATA    BYTE      y
      REG=3       REGSYM    ---      ---       s
      0000004AH   SYMBOL    EDATA    BYTE      mode
      00FF241CH   BLOCK     CODE     NEAR LAB  LVL=1
      0000004BH   SYMBOL    EDATA    ---       s_num
      ---         BLOCKEND  ---      ---       LVL=1
      00FF240CH   LINE      CODE     ---       #466
      00FF241CH   LINE      CODE     ---       #467
      00FF241CH   LINE      CODE     ---       #469
      00FF241EH   LINE      CODE     ---       #471
      00FF2426H   LINE      CODE     ---       #473
      00FF2438H   LINE      CODE     ---       #474
      00FF2442H   LINE      CODE     ---       #475
      00FF2444H   LINE      CODE     ---       #476
      00FF2446H   LINE      CODE     ---       #479
      00FF244DH   LINE      CODE     ---       #480
      00FF2455H   LINE      CODE     ---       #481
      00FF2468H   LINE      CODE     ---       #482
      00FF2472H   LINE      CODE     ---       #483
L251 LINKER/LOCATER V4.66.93.0                                                        04/03/2024  18:20:45  PAGE 17


      00FF2474H   LINE      CODE     ---       #484
      00FF2474H   LINE      CODE     ---       #485
      00FF247DH   LINE      CODE     ---       #487
      00FF2482H   LINE      CODE     ---       #488
      00FF248CH   LINE      CODE     ---       #489
      00FF2491H   LINE      CODE     ---       #491
      ---         BLOCKEND  ---      ---       LVL=0

      00FF270AH   BLOCK     CODE     ---       LVL=0
      R13         REGSYM    ---      BYTE      x
      R14         REGSYM    ---      BYTE      y
      0000004DH   SYMBOL    EDATA    LONG      num
      R15         REGSYM    ---      BYTE      mode
      00FF2718H   BLOCK     CODE     NEAR LAB  LVL=1
      00010400H   SYMBOL    XDATA    ---       str
      ---         BLOCKEND  ---      ---       LVL=1
      00FF270AH   LINE      CODE     ---       #503
      00FF2718H   LINE      CODE     ---       #504
      00FF2718H   LINE      CODE     ---       #506
      00FF2728H   LINE      CODE     ---       #507
      00FF2743H   LINE      CODE     ---       #508
      00FF2754H   LINE      CODE     ---       #509
      ---         BLOCKEND  ---      ---       LVL=0

      00FF266CH   BLOCK     CODE     ---       LVL=0
      R13         REGSYM    ---      BYTE      x
      R14         REGSYM    ---      BYTE      y
      00000051H   SYMBOL    EDATA    FLOAT     num
      R15         REGSYM    ---      BYTE      mode
      00FF267AH   BLOCK     CODE     NEAR LAB  LVL=1
      0001040AH   SYMBOL    XDATA    ---       str
      ---         BLOCKEND  ---      ---       LVL=1
      00FF266CH   LINE      CODE     ---       #521
      00FF267AH   LINE      CODE     ---       #522
      00FF267AH   LINE      CODE     ---       #524
      00FF268AH   LINE      CODE     ---       #525
      00FF26A5H   LINE      CODE     ---       #526
      00FF26B6H   LINE      CODE     ---       #527
      ---         BLOCKEND  ---      ---       LVL=0

      00FF2518H   BLOCK     CODE     ---       LVL=0
      R9          REGSYM    ---      BYTE      x
      R0          REGSYM    ---      BYTE      y
      R1          REGSYM    ---      BYTE      num
      R8          REGSYM    ---      BYTE      mode
      00FF2520H   BLOCK     CODE     NEAR LAB  LVL=1
      R7          REGSYM    ---      BYTE      j
      R6          REGSYM    ---      BYTE      k
      ---         BLOCKEND  ---      ---       LVL=1
      00FF2518H   LINE      CODE     ---       #541
      00FF2520H   LINE      CODE     ---       #542
      00FF2520H   LINE      CODE     ---       #544
      00FF2522H   LINE      CODE     ---       #546
      00FF2524H   LINE      CODE     ---       #548
      00FF2528H   LINE      CODE     ---       #549
      00FF2546H   LINE      CODE     ---       #551
      00FF258BH   LINE      CODE     ---       #552
      00FF2591H   LINE      CODE     ---       #553
      00FF2598H   LINE      CODE     ---       #554
      ---         BLOCKEND  ---      ---       LVL=0

      00FF2615H   BLOCK     CODE     ---       LVL=0
      R15         REGSYM    ---      BYTE      x0
      R8          REGSYM    ---      BYTE      y0
      R9          REGSYM    ---      BYTE      x1
L251 LINKER/LOCATER V4.66.93.0                                                        04/03/2024  18:20:45  PAGE 18


      R14         REGSYM    ---      BYTE      y1
      REG=7       REGSYM    ---      ---       BMP
      00FF2621H   BLOCK     CODE     NEAR LAB  LVL=1
      WR6         REGSYM    ---      WORD      num
      R5          REGSYM    ---      BYTE      k
      R10         REGSYM    ---      BYTE      j
      ---         BLOCKEND  ---      ---       LVL=1
      00FF2615H   LINE      CODE     ---       #567
      00FF2621H   LINE      CODE     ---       #568
      00FF2621H   LINE      CODE     ---       #569
      00FF2623H   LINE      CODE     ---       #572
      00FF2627H   LINE      CODE     ---       #574
      00FF262BH   LINE      CODE     ---       #576
      00FF265DH   LINE      CODE     ---       #577
      00FF2663H   LINE      CODE     ---       #578
      00FF2669H   LINE      CODE     ---       #579
      ---         BLOCKEND  ---      ---       LVL=0

      ---         MODULE    ---      ---       spi
      00FF28EFH   PUBLIC    CODE     ---       SPI_Init
      00FF2A9EH   PUBLIC    CODE     ---       SPI_WriteByte
      000000CFH   SFRSYM    DATA     BYTE      SPDAT
      000000D0H   SFRSYM    DATA     BYTE      PSW
      0000009DH   SFRSYM    DATA     BYTE      IRCBAND
      00000097H   SFRSYM    DATA     BYTE      AUXR2
      000000EFH   SFRSYM    DATA     BYTE      AUXINTIF
      000000FDH   SFRSYM    DATA     BYTE      S4CON
      000000ACH   SFRSYM    DATA     BYTE      S3CON
      0000009AH   SFRSYM    DATA     BYTE      S2CON
      000000B7H   SFRSYM    DATA     BYTE      IPH
      000000CDH   SFRSYM    DATA     BYTE      SPSTAT
      000000DDH   SFRSYM    DATA     BYTE      T4T3M
      000000C1H   SFRSYM    DATA     BYTE      WDT_CONTR
      000000DFH   SFRSYM    DATA     BYTE      IP3
      000000F4H   SFRSYM    DATA     BYTE      USBCON
      000000B5H   SFRSYM    DATA     BYTE      IP2
      000000FFH   SFRSYM    DATA     BYTE      RSTCFG
      000000CEH.4 SFRSYM    DATA     BIT       MSTR
      000000C7H   SFRSYM    DATA     BYTE      IAP_CONTR
      000000F9H   SFRSYM    DATA     BYTE      LINICR
      0000008EH   SFRSYM    DATA     BYTE      AUXR
      000000AFH   SFRSYM    DATA     BYTE      IE2
      000000CEH.7 SFRSYM    DATA     BIT       SSIG
      000000CEH.6 SFRSYM    DATA     BIT       SPEN
      000000CDH.6 SFRSYM    DATA     BIT       WCOL
      00000088H   SFRSYM    DATA     BYTE      TCON
      00000089H   SFRSYM    DATA     BYTE      TMOD
      00000098H   SFRSYM    DATA     BYTE      SCON
      000000CDH.7 SFRSYM    DATA     BIT       SPIF
      000000F1H   SFRSYM    DATA     BYTE      CANICR
      00000087H   SFRSYM    DATA     BYTE      PCON
      000000BCH   SFRSYM    DATA     BYTE      ADC_CONTR
      000000CEH.3 SFRSYM    DATA     BIT       CPOL
      000000A0H.5 SFRSYM    DATA     BIT       SPI_SCK
      000000CEH.5 SFRSYM    DATA     BIT       DORD
      000000E7H   SFRSYM    DATA     BYTE      CMPCR2
      000000E6H   SFRSYM    DATA     BYTE      CMPCR1
      000000CEH.2 SFRSYM    DATA     BIT       CPHA
      000000DEH   SFRSYM    DATA     BYTE      ADCCFG
      000000B8H   SFRSYM    DATA     BYTE      IP
      0000008FH   SFRSYM    DATA     BYTE      INTCLKO
      000000EEH   SFRSYM    DATA     BYTE      IP3H
      000000B6H   SFRSYM    DATA     BYTE      IP2H
      000000A8H   SFRSYM    DATA     BYTE      IE
      000000BBH   SFRSYM    DATA     BYTE      P_SW3
L251 LINKER/LOCATER V4.66.93.0                                                        04/03/2024  18:20:45  PAGE 19


      000000BAH   SFRSYM    DATA     BYTE      P_SW2
      000000A2H   SFRSYM    DATA     BYTE      P_SW1
      000000CEH   SFRSYM    DATA     BYTE      SPCTL
      000000F8H   SFRSYM    DATA     BYTE      P7
      000000A0H.3 SFRSYM    DATA     BIT       SPI_MOSI
      000000E8H   SFRSYM    DATA     BYTE      P6
      000000C8H   SFRSYM    DATA     BYTE      P5
      000000C0H   SFRSYM    DATA     BYTE      P4
      000000B0H   SFRSYM    DATA     BYTE      P3
      000000A0H   SFRSYM    DATA     BYTE      P2
      00000090H   SFRSYM    DATA     BYTE      P1
      00000080H   SFRSYM    DATA     BYTE      P0

      00FF28EFH   BLOCK     CODE     ---       LVL=0
      00FF28EFH   LINE      CODE     ---       #13
      00FF28EFH   LINE      CODE     ---       #15
      00FF28F7H   LINE      CODE     ---       #16
      00FF28FAH   LINE      CODE     ---       #17
      00FF28FDH   LINE      CODE     ---       #18
      00FF2900H   LINE      CODE     ---       #19
      00FF2903H   LINE      CODE     ---       #20
      00FF2906H   LINE      CODE     ---       #21
      00FF2909H   LINE      CODE     ---       #22
      00FF2911H   LINE      CODE     ---       #24
      00FF2913H   LINE      CODE     ---       #25
      00FF2915H   LINE      CODE     ---       #26
      00FF2918H   LINE      CODE     ---       #27
      00FF291BH   LINE      CODE     ---       #28
      ---         BLOCKEND  ---      ---       LVL=0

      00FF2A9EH   BLOCK     CODE     ---       LVL=0
      R11         REGSYM    ---      BYTE      out
      00FF2A9EH   LINE      CODE     ---       #41
      00FF2A9EH   LINE      CODE     ---       #43
      00FF2AA1H   LINE      CODE     ---       #44
      00FF2AA8H   LINE      CODE     ---       #45
      00FF2AABH   LINE      CODE     ---       #46
      00FF2AAEH   LINE      CODE     ---       #47
      ---         BLOCKEND  ---      ---       LVL=0

      ---         MODULE    ---      ---       SPRINTF
      00000030H   PUBLIC    EDATA    ---       ?SPRINTF?BYTE
      00FF18ABH   PUBLIC    CODE     NEAR LAB  SPRINTF

      ---         MODULE    ---      ---       ?C?PRNFMT
      00FF18F8H   PUBLIC    CODE     ---       ?C?PRNFMT

      ---         MODULE    ---      ---       ?C?FPCONVERT
      00FF1D15H   PUBLIC    CODE     ---       ?C?FPCONVERT
      00FF1DCDH   PUBLIC    CODE     ---       ?C?FPROUND

      ---         MODULE    ---      ---       ?C?FPMUL
      00FF1E10H   PUBLIC    CODE     ---       ?C?FPMUL

      ---         MODULE    ---      ---       ?C?FPDIV
      00FF1EB0H   PUBLIC    CODE     ---       ?C?FPDIV

      ---         MODULE    ---      ---       ?C?FTNPWR
      00FF1F61H   PUBLIC    CODE     ---       ?C?FTNPWR

      ---         MODULE    ---      ---       ?C?FPGETOPN
      00FF1F98H   PUBLIC    CODE     ---       ?C?FPGETOPN2
      00FF1FD5H   PUBLIC    CODE     ---       ?C?FPNANRESULT
      00FF1FDDH   PUBLIC    CODE     ---       ?C?FPOVERFLOW
      00FF1FB1H   PUBLIC    CODE     ---       ?C?FPRESULT
L251 LINKER/LOCATER V4.66.93.0                                                        04/03/2024  18:20:45  PAGE 20


      00FF1FC7H   PUBLIC    CODE     ---       ?C?FPRESULT2
      00FF1FDAH   PUBLIC    CODE     ---       ?C?FPUNDERFLOW

      ---         MODULE    ---      ---       ?C_START
      00FF0000H   PUBLIC    CODE     ---       ?C?STARTUP
      00FF0000H   PUBLIC    CODE     ---       ?C_STARTUP

      ---         MODULE    ---      ---       ?C?INITEDATA
      00FF27F5H   PUBLIC    CODE     ---       ?C?INITEDATA

      ---         MODULE    ---      ---       ?C?SIDIV
      00FF1FE9H   PUBLIC    CODE     ---       ?C?SIDIV

      ---         MODULE    ---      ---       memset
      00FF2A2BH   PUBLIC    CODE     ---       memset?_

      ---         MODULE    ---      ---       ?C?INITEDATA_END
      00FF2B7CH   PUBLIC    HCONST   WORD      ?C?INITEDATA_END



*** WARNING L57: UNCALLED FUNCTION, IGNORED FOR OVERLAY PROCESS
    NAME:    OLED_BuffShowCircle/oled

*** WARNING L57: UNCALLED FUNCTION, IGNORED FOR OVERLAY PROCESS
    NAME:    OLED_BuffShowNum02F/oled

*** WARNING L57: UNCALLED FUNCTION, IGNORED FOR OVERLAY PROCESS
    NAME:    OLED_LightSet/oled

*** WARNING L57: UNCALLED FUNCTION, IGNORED FOR OVERLAY PROCESS
    NAME:    OLED_BuffShowRectangle/oled

*** WARNING L57: UNCALLED FUNCTION, IGNORED FOR OVERLAY PROCESS
    NAME:    OLED_BuffShowNum/oled

*** WARNING L57: UNCALLED FUNCTION, IGNORED FOR OVERLAY PROCESS
    NAME:    OLED_DrawBMP/oled

*** WARNING L57: UNCALLED FUNCTION, IGNORED FOR OVERLAY PROCESS
    NAME:    OLED_DisplayOff/oled

*** WARNING L25: DATA TYPES DIFFERENT
    SYMBOL:  SPI_Init
    MODULE:  .\Objects\oled.obj (oled)
   DEFINED:  .\Objects\spi.obj (spi)

Program Size: data=8.0 edata+hdata=335 xdata=1047 const=182 code=10961
L251 RUN COMPLETE.  8 WARNING(S),  0 ERROR(S)
